; Function Attrs: nounwind sspstrong uwtable
define dso_local void @tcg_gen_extract2_i64(ptr noundef %0, ptr noundef %1, ptr noundef %2, i32 noundef %3) local_unnamed_addr #2 {
  %5 = icmp ult i32 %3, 65
  tail call void @llvm.assume(i1 %5)
  switch i32 %3, label %30 [
    i32 0, label %6
    i32 64, label %18
  ]

6:                                                ; preds = %4
  %7 = icmp eq ptr %0, %1
  br i1 %7, label %tcg_gen_mov_i64.exit, label %8

8:                                                ; preds = %6
  %9 = tail call align 8 ptr @llvm.threadlocal.address.p0(ptr align 8 @tcg_ctx)
  %10 = load ptr, ptr %9, align 8
  %11 = ptrtoint ptr %0 to i64
  %12 = getelementptr inbounds nuw i8, ptr %10, i64 %11
  %13 = ptrtoint ptr %12 to i64
  %14 = ptrtoint ptr %1 to i64
  %15 = getelementptr inbounds nuw i8, ptr %10, i64 %14
  %16 = ptrtoint ptr %15 to i64
  %17 = tail call ptr @tcg_gen_op2(i32 noundef 63, i32 noundef 1, i64 noundef %13, i64 noundef %16)
  br label %tcg_gen_mov_i64.exit

18:                                               ; preds = %4
  %19 = icmp eq ptr %0, %2
  br i1 %19, label %tcg_gen_mov_i64.exit, label %20

20:                                               ; preds = %18
  %21 = tail call align 8 ptr @llvm.threadlocal.address.p0(ptr align 8 @tcg_ctx)
  %22 = load ptr, ptr %21, align 8
  %23 = ptrtoint ptr %0 to i64
  %24 = getelementptr inbounds nuw i8, ptr %22, i64 %23
  %25 = ptrtoint ptr %24 to i64
  %26 = ptrtoint ptr %2 to i64
  %27 = getelementptr inbounds nuw i8, ptr %22, i64 %26
  %28 = ptrtoint ptr %27 to i64
  %29 = tail call ptr @tcg_gen_op2(i32 noundef 63, i32 noundef 1, i64 noundef %25, i64 noundef %28)
  br label %tcg_gen_mov_i64.exit

30:                                               ; preds = %4
  %31 = icmp eq ptr %1, %2
  br i1 %31, label %32, label %61

32:                                               ; preds = %30
  %33 = icmp eq i32 %3, 0
  br i1 %33, label %34, label %tcg_gen_rotli_i64.exit.i

34:                                               ; preds = %32
  %35 = icmp eq ptr %0, %2
  br i1 %35, label %tcg_gen_mov_i64.exit, label %36

36:                                               ; preds = %34
  %37 = tail call align 8 ptr @llvm.threadlocal.address.p0(ptr align 8 @tcg_ctx)
  %38 = load ptr, ptr %37, align 8
  %39 = ptrtoint ptr %0 to i64
  %40 = getelementptr inbounds nuw i8, ptr %38, i64 %39
  %41 = ptrtoint ptr %40 to i64
  %42 = ptrtoint ptr %2 to i64
  %43 = getelementptr inbounds nuw i8, ptr %38, i64 %42
  %44 = ptrtoint ptr %43 to i64
  %45 = tail call ptr @tcg_gen_op2(i32 noundef 63, i32 noundef 1, i64 noundef %41, i64 noundef %44)
  br label %tcg_gen_mov_i64.exit

tcg_gen_rotli_i64.exit.i:                         ; preds = %32
  %46 = zext nneg i32 %3 to i64
  %47 = sub nuw nsw i64 64, %46
  %48 = tail call ptr @tcg_constant_i64(i64 noundef %47) #6
  %49 = tail call align 8 ptr @llvm.threadlocal.address.p0(ptr align 8 @tcg_ctx)
  %50 = load ptr, ptr %49, align 8
  %51 = ptrtoint ptr %0 to i64
  %52 = getelementptr inbounds nuw i8, ptr %50, i64 %51
  %53 = ptrtoint ptr %52 to i64
  %54 = ptrtoint ptr %2 to i64
  %55 = getelementptr inbounds nuw i8, ptr %50, i64 %54
  %56 = ptrtoint ptr %55 to i64
  %57 = ptrtoint ptr %48 to i64
  %58 = getelementptr inbounds nuw i8, ptr %50, i64 %57
  %59 = ptrtoint ptr %58 to i64
  %60 = tail call ptr @tcg_gen_op3(i32 noundef 93, i32 noundef 1, i64 noundef %53, i64 noundef %56, i64 noundef %59)
  br label %tcg_gen_mov_i64.exit

61:                                               ; preds = %30
  %62 = zext nneg i32 %3 to i64
  %63 = tail call align 8 ptr @llvm.threadlocal.address.p0(ptr align 8 @tcg_ctx)
  %64 = load ptr, ptr %63, align 8
  %65 = ptrtoint ptr %0 to i64
  %66 = getelementptr inbounds nuw i8, ptr %64, i64 %65
  %67 = ptrtoint ptr %66 to i64
  %68 = ptrtoint ptr %1 to i64
  %69 = getelementptr inbounds nuw i8, ptr %64, i64 %68
  %70 = ptrtoint ptr %69 to i64
  %71 = ptrtoint ptr %2 to i64
  %72 = getelementptr inbounds nuw i8, ptr %64, i64 %71
  %73 = ptrtoint ptr %72 to i64
  %74 = tail call ptr @tcg_gen_op4(i32 noundef 98, i32 noundef 1, i64 noundef %67, i64 noundef %70, i64 noundef %73, i64 noundef range(i64 1, 4294967296) %62)
  br label %tcg_gen_mov_i64.exit

tcg_gen_mov_i64.exit:                             ; preds = %tcg_gen_rotli_i64.exit.i, %36, %34, %20, %18, %8, %6, %61
  ret void
}